target datalayout = "e-m:e-p270:32:32-p271:32:32-p272:64:64-i64:64-i128:128-f80:128-n8:16:32:64-S128"
target triple = "x86_64-pc-linux-gnu"

%struct.Node = type { i32 }
%struct.RangeTableFunc = type { i32, i8, ptr, ptr, ptr, ptr, ptr, i32 }

; Function Attrs: inlinehint nounwind uwtable
define internal ptr @newNode(i64 noundef %0, i32 noundef %1) #7 {
  %3 = alloca i64, align 8
  %4 = alloca i32, align 4
  %5 = alloca ptr, align 8
  store i64 %0, ptr %3, align 8
  store i32 %1, ptr %4, align 4
  call void @llvm.lifetime.start.p0(i64 8, ptr %5) #9
  %6 = load i64, ptr %3, align 8
  %7 = call ptr @palloc0(i64 noundef %6)
  store ptr %7, ptr %5, align 8
  %8 = load i32, ptr %4, align 4
  %9 = load ptr, ptr %5, align 8
  %10 = getelementptr inbounds nuw %struct.Node, ptr %9, i32 0, i32 0
  store i32 %8, ptr %10, align 4
  %11 = load ptr, ptr %5, align 8
  call void @llvm.lifetime.end.p0(i64 8, ptr %5) #9
  ret ptr %11
}

; Function Attrs: nounwind uwtable
define internal ptr @_readRangeTableFunc() #0 {
  %1 = alloca ptr, align 8
  %2 = alloca ptr, align 8
  %3 = alloca i32, align 4
  call void @llvm.lifetime.start.p0(i64 8, ptr %1) #9
  %4 = call ptr @newNode(i64 noundef 56, i32 noundef 87)
  store ptr %4, ptr %1, align 8
  call void @llvm.lifetime.start.p0(i64 8, ptr %2) #9
  call void @llvm.lifetime.start.p0(i64 4, ptr %3) #9
  %5 = call ptr @pg_strtok(ptr noundef %3)
  store ptr %5, ptr %2, align 8
  %6 = call ptr @pg_strtok(ptr noundef %3)
  store ptr %6, ptr %2, align 8
  %7 = load ptr, ptr %2, align 8
  %8 = load i8, ptr %7, align 1
  %9 = sext i8 %8 to i32
  %10 = icmp eq i32 %9, 116
  %11 = select i1 %10, i32 1, i32 0
  %12 = icmp ne i32 %11, 0
  %13 = load ptr, ptr %1, align 8
  %14 = getelementptr inbounds nuw %struct.RangeTableFunc, ptr %13, i32 0, i32 1
  %15 = zext i1 %12 to i8
  store i8 %15, ptr %14, align 4
  %16 = call ptr @pg_strtok(ptr noundef %3)
  store ptr %16, ptr %2, align 8
  %17 = call ptr @nodeRead(ptr noundef null, i32 noundef 0)
  %18 = load ptr, ptr %1, align 8
  %19 = getelementptr inbounds nuw %struct.RangeTableFunc, ptr %18, i32 0, i32 2
  store ptr %17, ptr %19, align 8
  %20 = call ptr @pg_strtok(ptr noundef %3)
  store ptr %20, ptr %2, align 8
  %21 = call ptr @nodeRead(ptr noundef null, i32 noundef 0)
  %22 = load ptr, ptr %1, align 8
  %23 = getelementptr inbounds nuw %struct.RangeTableFunc, ptr %22, i32 0, i32 3
  store ptr %21, ptr %23, align 8
  %24 = call ptr @pg_strtok(ptr noundef %3)
  store ptr %24, ptr %2, align 8
  %25 = call ptr @nodeRead(ptr noundef null, i32 noundef 0)
  %26 = load ptr, ptr %1, align 8
  %27 = getelementptr inbounds nuw %struct.RangeTableFunc, ptr %26, i32 0, i32 4
  store ptr %25, ptr %27, align 8
  %28 = call ptr @pg_strtok(ptr noundef %3)
  store ptr %28, ptr %2, align 8
  %29 = call ptr @nodeRead(ptr noundef null, i32 noundef 0)
  %30 = load ptr, ptr %1, align 8
  %31 = getelementptr inbounds nuw %struct.RangeTableFunc, ptr %30, i32 0, i32 5
  store ptr %29, ptr %31, align 8
  %32 = call ptr @pg_strtok(ptr noundef %3)
  store ptr %32, ptr %2, align 8
  %33 = call ptr @nodeRead(ptr noundef null, i32 noundef 0)
  %34 = load ptr, ptr %1, align 8
  %35 = getelementptr inbounds nuw %struct.RangeTableFunc, ptr %34, i32 0, i32 6
  store ptr %33, ptr %35, align 8
  %36 = call ptr @pg_strtok(ptr noundef %3)
  store ptr %36, ptr %2, align 8
  %37 = call ptr @pg_strtok(ptr noundef %3)
  store ptr %37, ptr %2, align 8
  %38 = load ptr, ptr %1, align 8
  %39 = getelementptr inbounds nuw %struct.RangeTableFunc, ptr %38, i32 0, i32 7
  store i32 -1, ptr %39, align 8
  %40 = load ptr, ptr %1, align 8
  call void @llvm.lifetime.end.p0(i64 4, ptr %3) #9
  call void @llvm.lifetime.end.p0(i64 8, ptr %2) #9
  call void @llvm.lifetime.end.p0(i64 8, ptr %1) #9
  ret ptr %40
}