; Function Attrs: nounwind uwtable
define internal fastcc noundef ptr @_readRangeTableFunc() unnamed_addr #0 {
  %1 = alloca i32, align 4
  %2 = tail call noundef ptr @palloc0(i64 noundef 56) #10
  store i32 87, ptr %2, align 4
  call void @llvm.lifetime.start.p0(i64 4, ptr nonnull %1) #10
  %3 = call ptr @pg_strtok(ptr noundef nonnull %1) #10
  %4 = call ptr @pg_strtok(ptr noundef nonnull %1) #10
  %5 = load i8, ptr %4, align 1
  %6 = icmp eq i8 %5, 116
  %7 = getelementptr inbounds nuw i8, ptr %2, i64 4
  %8 = zext i1 %6 to i8
  store i8 %8, ptr %7, align 4
  %9 = call ptr @pg_strtok(ptr noundef nonnull %1) #10
  %10 = call ptr @nodeRead(ptr noundef null, i32 noundef 0) #10
  %11 = getelementptr inbounds nuw i8, ptr %2, i64 8
  store ptr %10, ptr %11, align 8
  %12 = call ptr @pg_strtok(ptr noundef nonnull %1) #10
  %13 = call ptr @nodeRead(ptr noundef null, i32 noundef 0) #10
  %14 = getelementptr inbounds nuw i8, ptr %2, i64 16
  store ptr %13, ptr %14, align 8
  %15 = call ptr @pg_strtok(ptr noundef nonnull %1) #10
  %16 = call ptr @nodeRead(ptr noundef null, i32 noundef 0) #10
  %17 = getelementptr inbounds nuw i8, ptr %2, i64 24
  store ptr %16, ptr %17, align 8
  %18 = call ptr @pg_strtok(ptr noundef nonnull %1) #10
  %19 = call ptr @nodeRead(ptr noundef null, i32 noundef 0) #10
  %20 = getelementptr inbounds nuw i8, ptr %2, i64 32
  store ptr %19, ptr %20, align 8
  %21 = call ptr @pg_strtok(ptr noundef nonnull %1) #10
  %22 = call ptr @nodeRead(ptr noundef null, i32 noundef 0) #10
  %23 = getelementptr inbounds nuw i8, ptr %2, i64 40
  store ptr %22, ptr %23, align 8
  %24 = call ptr @pg_strtok(ptr noundef nonnull %1) #10
  %25 = call ptr @pg_strtok(ptr noundef nonnull %1) #10
  %26 = getelementptr inbounds nuw i8, ptr %2, i64 48
  store i32 -1, ptr %26, align 8
  call void @llvm.lifetime.end.p0(i64 4, ptr nonnull %1) #10
  ret ptr %2
}